target datalayout = "e-m:e-p270:32:32-p271:32:32-p272:64:64-i64:64-i128:128-f80:128-n8:16:32:64-S128"
target triple = "x86_64-pc-linux-gnu"

%"class.pxrInternal_v0_24__pxrReserved__::GfRange2f" = type { %"class.pxrInternal_v0_24__pxrReserved__::GfVec2f", %"class.pxrInternal_v0_24__pxrReserved__::GfVec2f" }
%"class.pxrInternal_v0_24__pxrReserved__::GfVec2f" = type { [2 x float] }

@.str.2 = private unnamed_addr constant [4 x i8] c"...\00", align 1

; Function Attrs: mustprogress nounwind uwtable
define linkonce_odr noundef nonnull align 4 dereferenceable(8) ptr @_ZNK32pxrInternal_v0_24__pxrReserved__9GfRange2f6GetMaxEv(ptr noundef nonnull align 4 dereferenceable(16) %0) #2 comdat align 2 {
  %2 = alloca ptr, align 8
  store ptr %0, ptr %2, align 8
  %3 = load ptr, ptr %2, align 8
  %4 = getelementptr inbounds nuw %"class.pxrInternal_v0_24__pxrReserved__::GfRange2f", ptr %3, i32 0, i32 1
  ret ptr %4
}

; Function Attrs: mustprogress nounwind uwtable
define linkonce_odr <2 x float> @_ZN32pxrInternal_v0_24__pxrReserved__17Gf_OstreamHelperPINS_7GfVec2fEEET_S2_(<2 x float> %0) #5 comdat {
  %2 = alloca %"class.pxrInternal_v0_24__pxrReserved__::GfVec2f", align 4
  %3 = alloca %"class.pxrInternal_v0_24__pxrReserved__::GfVec2f", align 4
  %4 = getelementptr inbounds nuw %"class.pxrInternal_v0_24__pxrReserved__::GfVec2f", ptr %3, i32 0, i32 0
  store <2 x float> %0, ptr %4, align 4
  call void @llvm.memcpy.p0.p0.i64(ptr align 4 %2, ptr align 4 %3, i64 8, i1 false)
  %5 = getelementptr inbounds nuw %"class.pxrInternal_v0_24__pxrReserved__::GfVec2f", ptr %2, i32 0, i32 0
  %6 = load <2 x float>, ptr %5, align 4
  ret <2 x float> %6
}

; Function Attrs: mustprogress nounwind uwtable
define linkonce_odr noundef nonnull align 4 dereferenceable(8) ptr @_ZNK32pxrInternal_v0_24__pxrReserved__9GfRange2f6GetMinEv(ptr noundef nonnull align 4 dereferenceable(16) %0) #2 comdat align 2 {
  %2 = alloca ptr, align 8
  store ptr %0, ptr %2, align 8
  %3 = load ptr, ptr %2, align 8
  %4 = getelementptr inbounds nuw %"class.pxrInternal_v0_24__pxrReserved__::GfRange2f", ptr %3, i32 0, i32 0
  ret ptr %4
}

; Function Attrs: mustprogress uwtable
define noundef nonnull align 8 dereferenceable(8) ptr @_ZN32pxrInternal_v0_24__pxrReserved__lsERSoRKNS_9GfRange2fE(ptr noundef nonnull align 8 dereferenceable(8) %0, ptr noundef nonnull align 4 dereferenceable(16) %1) #3 {
  %3 = alloca ptr, align 8
  %4 = alloca ptr, align 8
  %5 = alloca %"class.pxrInternal_v0_24__pxrReserved__::GfVec2f", align 4
  %6 = alloca %"class.pxrInternal_v0_24__pxrReserved__::GfVec2f", align 4
  %7 = alloca %"class.pxrInternal_v0_24__pxrReserved__::GfVec2f", align 4
  %8 = alloca %"class.pxrInternal_v0_24__pxrReserved__::GfVec2f", align 4
  store ptr %0, ptr %3, align 8
  store ptr %1, ptr %4, align 8
  %9 = load ptr, ptr %3, align 8
  %10 = call noundef nonnull align 8 dereferenceable(8) ptr @_ZStlsISt11char_traitsIcEERSt13basic_ostreamIcT_ES5_c(ptr noundef nonnull align 8 dereferenceable(8) %9, i8 noundef signext 91)
  %11 = load ptr, ptr %4, align 8
  %12 = call noundef nonnull align 4 dereferenceable(8) ptr @_ZNK32pxrInternal_v0_24__pxrReserved__9GfRange2f6GetMinEv(ptr noundef nonnull align 4 dereferenceable(16) %11)
  call void @llvm.memcpy.p0.p0.i64(ptr align 4 %6, ptr align 4 %12, i64 8, i1 false)
  %13 = getelementptr inbounds nuw %"class.pxrInternal_v0_24__pxrReserved__::GfVec2f", ptr %6, i32 0, i32 0
  %14 = load <2 x float>, ptr %13, align 4
  %15 = call <2 x float> @_ZN32pxrInternal_v0_24__pxrReserved__17Gf_OstreamHelperPINS_7GfVec2fEEET_S2_(<2 x float> %14)
  %16 = getelementptr inbounds nuw %"class.pxrInternal_v0_24__pxrReserved__::GfVec2f", ptr %5, i32 0, i32 0
  store <2 x float> %15, ptr %16, align 4
  %17 = call noundef nonnull align 8 dereferenceable(8) ptr @_ZN32pxrInternal_v0_24__pxrReserved__lsERSoRKNS_7GfVec2fE(ptr noundef nonnull align 8 dereferenceable(8) %10, ptr noundef nonnull align 4 dereferenceable(8) %5)
  %18 = call noundef nonnull align 8 dereferenceable(8) ptr @_ZStlsISt11char_traitsIcEERSt13basic_ostreamIcT_ES5_PKc(ptr noundef nonnull align 8 dereferenceable(8) %17, ptr noundef @.str.2)
  %19 = load ptr, ptr %4, align 8
  %20 = call noundef nonnull align 4 dereferenceable(8) ptr @_ZNK32pxrInternal_v0_24__pxrReserved__9GfRange2f6GetMaxEv(ptr noundef nonnull align 4 dereferenceable(16) %19)
  call void @llvm.memcpy.p0.p0.i64(ptr align 4 %8, ptr align 4 %20, i64 8, i1 false)
  %21 = getelementptr inbounds nuw %"class.pxrInternal_v0_24__pxrReserved__::GfVec2f", ptr %8, i32 0, i32 0
  %22 = load <2 x float>, ptr %21, align 4
  %23 = call <2 x float> @_ZN32pxrInternal_v0_24__pxrReserved__17Gf_OstreamHelperPINS_7GfVec2fEEET_S2_(<2 x float> %22)
  %24 = getelementptr inbounds nuw %"class.pxrInternal_v0_24__pxrReserved__::GfVec2f", ptr %7, i32 0, i32 0
  store <2 x float> %23, ptr %24, align 4
  %25 = call noundef nonnull align 8 dereferenceable(8) ptr @_ZN32pxrInternal_v0_24__pxrReserved__lsERSoRKNS_7GfVec2fE(ptr noundef nonnull align 8 dereferenceable(8) %18, ptr noundef nonnull align 4 dereferenceable(8) %7)
  %26 = call noundef nonnull align 8 dereferenceable(8) ptr @_ZStlsISt11char_traitsIcEERSt13basic_ostreamIcT_ES5_c(ptr noundef nonnull align 8 dereferenceable(8) %25, i8 noundef signext 93)
  ret ptr %26
}